; Function Attrs: nounwind uwtable
define internal fastcc ptr @unix_mmap(ptr noundef %0, i64 noundef %1, i64 noundef %2, i32 noundef range(i32 0, 4) %3, i1 noundef zeroext %4, i1 noundef zeroext %5, ptr noundef writeonly captures(none) initializes((0, 1)) %6) unnamed_addr #0 {
  %8 = tail call zeroext i1 @_mi_os_has_overcommit() #10
  %spec.select = select i1 %8, i32 16418, i32 34
  br i1 %5, label %9, label %.thread95

9:                                                ; preds = %7
  br i1 %4, label %20, label %10

10:                                               ; preds = %9
  %11 = tail call zeroext i1 @_mi_os_use_large_page(i64 noundef %1, i64 noundef %2) #10
  br i1 %11, label %12, label %.thread95

12:                                               ; preds = %10
  %13 = tail call i64 @mi_option_get(i32 noundef 6) #10
  %14 = icmp eq i64 %13, 1
  br i1 %14, label %15, label %.thread95

15:                                               ; preds = %12
  %16 = load atomic i64, ptr @unix_mmap.large_page_try_ok acquire, align 8
  %17 = icmp eq i64 %16, 0
  br i1 %17, label %.thread79, label %.thread86

.thread86:                                        ; preds = %15
  %18 = add i64 %16, -1
  %19 = cmpxchg ptr @unix_mmap.large_page_try_ok, i64 %16, i64 %18 acq_rel acquire, align 8
  br label %.thread95

20:                                               ; preds = %9
  %21 = load atomic i64, ptr @unix_mmap.large_page_try_ok acquire, align 8
  %22 = and i64 %1, 1073741823
  %23 = icmp eq i64 %22, 0
  br i1 %23, label %24, label %.thread79

24:                                               ; preds = %20
  %.b = load i1, ptr @unix_mmap.mi_huge_pages_available, align 1
  br i1 %.b, label %.thread79, label %25

.thread79:                                        ; preds = %15, %24, %20
  br label %25

25:                                               ; preds = %24, %.thread79
  %.067 = phi i32 [ 1409548322, %.thread79 ], [ 2013528098, %24 ]
  store i8 1, ptr %6, align 1, !tbaa !17
  %26 = tail call fastcc ptr @unix_mmap_prim(ptr noundef %0, i64 noundef %1, i64 noundef %2, i32 noundef %3, i32 noundef %.067) #13
  %27 = icmp eq ptr %26, null
  br i1 %27, label %28, label %unix_madvise.exit

28:                                               ; preds = %25
  %29 = and i32 %.067, 2013265920
  %30 = icmp eq i32 %29, 2013265920
  br i1 %30, label %31, label %.thread81

31:                                               ; preds = %28
  store i1 true, ptr @unix_mmap.mi_huge_pages_available, align 1
  br i1 %4, label %.thread104, label %35

.thread104:                                       ; preds = %31
  %32 = tail call ptr @__errno_location() #12
  %33 = load i32, ptr %32, align 4, !tbaa !15
  tail call void (ptr, ...) @_mi_warning_message(ptr noundef nonnull @.str.4, i32 noundef %33) #10
  %34 = tail call fastcc ptr @unix_mmap_prim(ptr noundef %0, i64 noundef %1, i64 noundef %2, i32 noundef %3, i32 noundef 1409548322) #13
  br label %unix_madvise.exit

35:                                               ; preds = %31
  %36 = tail call fastcc ptr @unix_mmap_prim(ptr noundef %0, i64 noundef %1, i64 noundef %2, i32 noundef %3, i32 noundef 1409548322) #13
  %.not106 = icmp eq ptr %36, null
  br i1 %.not106, label %.thread97, label %unix_madvise.exit

.thread81:                                        ; preds = %28
  br i1 %4, label %unix_madvise.exit, label %.thread97

.thread97:                                        ; preds = %35, %.thread81
  store atomic i64 8, ptr @unix_mmap.large_page_try_ok release, align 8
  br label %.thread95

.thread95:                                        ; preds = %.thread86, %7, %10, %12, %.thread97
  store i8 0, ptr %6, align 1, !tbaa !17
  %37 = tail call fastcc ptr @unix_mmap_prim(ptr noundef %0, i64 noundef %1, i64 noundef %2, i32 noundef %3, i32 noundef %spec.select) #13
  %.not = icmp ne ptr %37, null
  %brmerge.not = and i1 %5, %.not
  br i1 %brmerge.not, label %38, label %unix_madvise.exit

38:                                               ; preds = %.thread95
  %39 = tail call zeroext i1 @_mi_os_use_large_page(i64 noundef %1, i64 noundef %2) #10
  br i1 %39, label %40, label %unix_madvise.exit

40:                                               ; preds = %38
  %41 = tail call i32 @madvise(ptr noundef nonnull %37, i64 noundef %1, i32 noundef 14) #10
  br label %unix_madvise.exit

unix_madvise.exit:                                ; preds = %25, %.thread104, %40, %.thread81, %35, %38, %.thread95
  %.3 = phi ptr [ %37, %38 ], [ %37, %.thread95 ], [ %36, %35 ], [ null, %.thread81 ], [ %37, %40 ], [ %34, %.thread104 ], [ %26, %25 ]
  ret ptr %.3
}